; Function Attrs: nofree norecurse nosync nounwind memory(read, inaccessiblemem: none) uwtable
define range(i32 0, 2) i32 @Cgt_ManCheckGateComplete(ptr noundef readonly captures(none) %0, ptr noundef readonly captures(none) %1, ptr noundef readnone %2, ptr noundef readonly captures(none) %3) local_unnamed_addr #2 {
  %5 = getelementptr i8, ptr %3, i64 4
  %.val13 = load i32, ptr %5, align 4
  %6 = icmp sgt i32 %.val13, 0
  br i1 %6, label %.lr.ph, label %.critedge

.lr.ph:                                           ; preds = %4
  %7 = getelementptr i8, ptr %3, i64 8
  %.val = load ptr, ptr %7, align 8
  %8 = getelementptr i8, ptr %0, i64 112
  %9 = getelementptr i8, ptr %1, i64 8
  %wide.trip.count = zext nneg i32 %.val13 to i64
  %.val15.pre.pre = load i32, ptr %8, align 8
  br label %10

10:                                               ; preds = %.lr.ph, %Vec_PtrFind.exit
  %indvars.iv = phi i64 [ 0, %.lr.ph ], [ %indvars.iv.next, %Vec_PtrFind.exit ]
  %11 = getelementptr inbounds nuw ptr, ptr %.val, i64 %indvars.iv
  %12 = load ptr, ptr %11, align 8
  %13 = getelementptr i8, ptr %12, i64 24
  %.val.i = load i64, ptr %13, align 8
  %14 = and i64 %.val.i, 7
  %.not.i = icmp eq i64 %14, 3
  %.val14.pre = load i32, ptr %12, align 8
  %.not = icmp slt i32 %.val14.pre, %.val15.pre.pre
  %or.cond = select i1 %.not.i, i1 %.not, i1 false
  br i1 %or.cond, label %.critedge, label %Saig_ObjIsPo.exit.thread

Saig_ObjIsPo.exit.thread:                         ; preds = %10
  %15 = sub nsw i32 %.val14.pre, %.val15.pre.pre
  %.val16 = load ptr, ptr %9, align 8
  %16 = sext i32 %15 to i64
  %17 = getelementptr inbounds ptr, ptr %.val16, i64 %16
  %18 = load ptr, ptr %17, align 8
  %19 = getelementptr inbounds nuw i8, ptr %18, i64 4
  %20 = load i32, ptr %19, align 4
  %21 = icmp sgt i32 %20, 0
  br i1 %21, label %.lr.ph.i, label %.critedge

.lr.ph.i:                                         ; preds = %Saig_ObjIsPo.exit.thread
  %22 = getelementptr inbounds nuw i8, ptr %18, i64 8
  %23 = load ptr, ptr %22, align 8
  %wide.trip.count.i = zext nneg i32 %20 to i64
  br label %24

24:                                               ; preds = %28, %.lr.ph.i
  %indvars.iv.i = phi i64 [ 0, %.lr.ph.i ], [ %indvars.iv.next.i, %28 ]
  %25 = getelementptr inbounds nuw ptr, ptr %23, i64 %indvars.iv.i
  %26 = load ptr, ptr %25, align 8
  %27 = icmp eq ptr %26, %2
  br i1 %27, label %Vec_PtrFind.exit, label %28

28:                                               ; preds = %24
  %indvars.iv.next.i = add nuw nsw i64 %indvars.iv.i, 1
  %exitcond.not.i = icmp eq i64 %indvars.iv.next.i, %wide.trip.count.i
  br i1 %exitcond.not.i, label %.critedge, label %24, !llvm.loop !6

Vec_PtrFind.exit:                                 ; preds = %24
  %indvars.iv.next = add nuw nsw i64 %indvars.iv, 1
  %exitcond.not = icmp eq i64 %indvars.iv.next, %wide.trip.count
  br i1 %exitcond.not, label %.critedge, label %10, !llvm.loop !7

.critedge:                                        ; preds = %Vec_PtrFind.exit, %Saig_ObjIsPo.exit.thread, %10, %28, %4
  %.012 = phi i32 [ 1, %4 ], [ 0, %28 ], [ 1, %Vec_PtrFind.exit ], [ 0, %Saig_ObjIsPo.exit.thread ], [ 0, %10 ]
  ret i32 %.012
}